target datalayout = "e-m:e-p270:32:32-p271:32:32-p272:64:64-i64:64-i128:128-f80:128-n8:16:32:64-S128"
target triple = "x86_64-pc-linux-gnu"

%struct.bio_st = type { ptr, ptr, ptr, ptr, ptr, i32, i32, i32, i32, i32, ptr, ptr, ptr, %struct.CRYPTO_REF_COUNT, i64, i64, %struct.crypto_ex_data_st }
%struct.CRYPTO_REF_COUNT = type { i32 }
%struct.crypto_ex_data_st = type { ptr, ptr }

; Function Attrs: nounwind uwtable
define internal i64 @nbiof_ctrl(ptr noundef %0, i32 noundef %1, i64 noundef %2, ptr noundef %3) #0 {
  %5 = alloca i64, align 8
  %6 = alloca ptr, align 8
  %7 = alloca i32, align 4
  %8 = alloca i64, align 8
  %9 = alloca ptr, align 8
  %10 = alloca i64, align 8
  %11 = alloca i32, align 4
  store ptr %0, ptr %6, align 8, !tbaa !3
  store i32 %1, ptr %7, align 4, !tbaa !10
  store i64 %2, ptr %8, align 8, !tbaa !26
  store ptr %3, ptr %9, align 8, !tbaa !27
  call void @llvm.lifetime.start.p0(i64 8, ptr %10) #3
  %12 = load ptr, ptr %6, align 8, !tbaa !3
  %13 = getelementptr inbounds nuw %struct.bio_st, ptr %12, i32 0, i32 11
  %14 = load ptr, ptr %13, align 8, !tbaa !12
  %15 = icmp eq ptr %14, null
  br i1 %15, label %16, label %17

16:                                               ; preds = %4
  store i64 0, ptr %5, align 8
  store i32 1, ptr %11, align 4
  br label %40

17:                                               ; preds = %4
  %18 = load i32, ptr %7, align 4, !tbaa !10
  switch i32 %18, label %30 [
    i32 101, label %19
    i32 12, label %29
  ]

19:                                               ; preds = %17
  %20 = load ptr, ptr %6, align 8, !tbaa !3
  call void @BIO_clear_flags(ptr noundef %20, i32 noundef 15)
  %21 = load ptr, ptr %6, align 8, !tbaa !3
  %22 = getelementptr inbounds nuw %struct.bio_st, ptr %21, i32 0, i32 11
  %23 = load ptr, ptr %22, align 8, !tbaa !12
  %24 = load i32, ptr %7, align 4, !tbaa !10
  %25 = load i64, ptr %8, align 8, !tbaa !26
  %26 = load ptr, ptr %9, align 8, !tbaa !27
  %27 = call i64 @BIO_ctrl(ptr noundef %23, i32 noundef %24, i64 noundef %25, ptr noundef %26)
  store i64 %27, ptr %10, align 8, !tbaa !26
  %28 = load ptr, ptr %6, align 8, !tbaa !3
  call void @BIO_copy_next_retry(ptr noundef %28)
  br label %38

29:                                               ; preds = %17
  store i64 0, ptr %10, align 8, !tbaa !26
  br label %38

30:                                               ; preds = %17
  %31 = load ptr, ptr %6, align 8, !tbaa !3
  %32 = getelementptr inbounds nuw %struct.bio_st, ptr %31, i32 0, i32 11
  %33 = load ptr, ptr %32, align 8, !tbaa !12
  %34 = load i32, ptr %7, align 4, !tbaa !10
  %35 = load i64, ptr %8, align 8, !tbaa !26
  %36 = load ptr, ptr %9, align 8, !tbaa !27
  %37 = call i64 @BIO_ctrl(ptr noundef %33, i32 noundef %34, i64 noundef %35, ptr noundef %36)
  store i64 %37, ptr %10, align 8, !tbaa !26
  br label %38

38:                                               ; preds = %30, %29, %19
  %39 = load i64, ptr %10, align 8, !tbaa !26
  store i64 %39, ptr %5, align 8
  store i32 1, ptr %11, align 4
  br label %40

40:                                               ; preds = %38, %16
  call void @llvm.lifetime.end.p0(i64 8, ptr %10) #3
  %41 = load i64, ptr %5, align 8
  ret i64 %41
}