; Function Attrs: nounwind uwtable
define internal i64 @nbiof_ctrl(ptr noundef %0, i32 noundef %1, i64 noundef %2, ptr noundef %3) #2 {
  %5 = getelementptr inbounds nuw i8, ptr %0, i64 72
  %6 = load ptr, ptr %5, align 8, !tbaa !3
  %7 = icmp eq ptr %6, null
  br i1 %7, label %14, label %8

8:                                                ; preds = %4
  switch i32 %1, label %12 [
    i32 101, label %9
    i32 12, label %14
  ]

9:                                                ; preds = %8
  tail call void @BIO_clear_flags(ptr noundef nonnull %0, i32 noundef 15) #5
  %10 = load ptr, ptr %5, align 8, !tbaa !3
  %11 = tail call i64 @BIO_ctrl(ptr noundef %10, i32 noundef 101, i64 noundef %2, ptr noundef %3) #5
  tail call void @BIO_copy_next_retry(ptr noundef nonnull %0) #5
  br label %14

12:                                               ; preds = %8
  %13 = tail call i64 @BIO_ctrl(ptr noundef nonnull %6, i32 noundef %1, i64 noundef %2, ptr noundef %3) #5
  br label %14

14:                                               ; preds = %9, %12, %8, %4
  %.013 = phi i64 [ 0, %4 ], [ %13, %12 ], [ %11, %9 ], [ 0, %8 ]
  ret i64 %.013
}